#include <math.h>
#include <stdio.h>
#include <stdlib.h>
#include <string.h>
#define LEN 100
#define ASCII 100
#define MAX_N 100
#define MAX_N 100
#define L 100
#define MAX 100
#define ASC 100
#define null 0
#define Len 100
#define M 100
#define SUM 100
#define NUMBER 100
#define SIZE 100
#define N 100
#define Max 100
#define X 100
#define Y 100
#define A 100
#define MAXN 100
#define MAXSIZE 100
struct student
	{ char num[20];
	char name[20];
	char sex;
	int age;
	double score;
	char add[100];
	struct student*next;
	}*head,*p1;
void main()
{
	int n=0;
	p1=(struct student*)malloc(LEN);
	scanf("%s",p1->num);
	while(p1->num[0]!='e')
	{
scanf("%s %c%d%lf%s",p1->name,&p1->sex,&p1->age,&p1->score,p1->add);
		n++;
		if(n==1)p1->next=NULL;
		else p1->next=head;
head=p1;
		p1=(struct student*)malloc(LEN);
		scanf("%s",p1->num);
	}
	p1=head;
	do
	{
		printf("%s %s %c %d %g %s\n",p1->num,p1->name,p1->sex,p1->age,p1->score,p1->add);
		p1=p1->next;
	}
while(p1!=NULL);
}