; ModuleID = '31/1375.c'
source_filename = "31/1375.c"
target datalayout = "e-m:e-p270:32:32-p271:32:32-p272:64:64-i64:64-f80:128-n8:16:32:64-S128"
target triple = "x86_64-pc-linux-gnu"

%struct.student = type { [20 x i8], [20 x i8], i8, i32, double, [100 x i8], %struct.student* }

@p1 = common dso_local global %struct.student* null, align 8
@.str = private unnamed_addr constant [3 x i8] c"%s\00", align 1
@.str.1 = private unnamed_addr constant [13 x i8] c"%s %c%d%lf%s\00", align 1
@head = common dso_local global %struct.student* null, align 8
@.str.2 = private unnamed_addr constant [19 x i8] c"%s %s %c %d %g %s\0A\00", align 1

; Function Attrs: noinline nounwind uwtable
define dso_local void @main() #0 {
  %1 = alloca i32, align 4
  store i32 0, i32* %1, align 4
  %2 = call noalias i8* @malloc(i64 100) #3
  %3 = bitcast i8* %2 to %struct.student*
  store %struct.student* %3, %struct.student** @p1, align 8
  %4 = load %struct.student*, %struct.student** @p1, align 8
  %5 = getelementptr inbounds %struct.student, %struct.student* %4, i32 0, i32 0
  %6 = getelementptr inbounds [20 x i8], [20 x i8]* %5, i64 0, i64 0
  %7 = call i32 (i8*, ...) @__isoc99_scanf(i8* getelementptr inbounds ([3 x i8], [3 x i8]* @.str, i64 0, i64 0), i8* %6)
  br label %8

8:                                                ; preds = %40, %0
  %9 = load %struct.student*, %struct.student** @p1, align 8
  %10 = getelementptr inbounds %struct.student, %struct.student* %9, i32 0, i32 0
  %11 = getelementptr inbounds [20 x i8], [20 x i8]* %10, i64 0, i64 0
  %12 = load i8, i8* %11, align 8
  %13 = sext i8 %12 to i32
  %14 = icmp ne i32 %13, 101
  br i1 %14, label %15, label %48

15:                                               ; preds = %8
  %16 = load %struct.student*, %struct.student** @p1, align 8
  %17 = getelementptr inbounds %struct.student, %struct.student* %16, i32 0, i32 1
  %18 = getelementptr inbounds [20 x i8], [20 x i8]* %17, i64 0, i64 0
  %19 = load %struct.student*, %struct.student** @p1, align 8
  %20 = getelementptr inbounds %struct.student, %struct.student* %19, i32 0, i32 2
  %21 = load %struct.student*, %struct.student** @p1, align 8
  %22 = getelementptr inbounds %struct.student, %struct.student* %21, i32 0, i32 3
  %23 = load %struct.student*, %struct.student** @p1, align 8
  %24 = getelementptr inbounds %struct.student, %struct.student* %23, i32 0, i32 4
  %25 = load %struct.student*, %struct.student** @p1, align 8
  %26 = getelementptr inbounds %struct.student, %struct.student* %25, i32 0, i32 5
  %27 = getelementptr inbounds [100 x i8], [100 x i8]* %26, i64 0, i64 0
  %28 = call i32 (i8*, ...) @__isoc99_scanf(i8* getelementptr inbounds ([13 x i8], [13 x i8]* @.str.1, i64 0, i64 0), i8* %18, i8* %20, i32* %22, double* %24, i8* %27)
  %29 = load i32, i32* %1, align 4
  %30 = add nsw i32 %29, 1
  store i32 %30, i32* %1, align 4
  %31 = load i32, i32* %1, align 4
  %32 = icmp eq i32 %31, 1
  br i1 %32, label %33, label %36

33:                                               ; preds = %15
  %34 = load %struct.student*, %struct.student** @p1, align 8
  %35 = getelementptr inbounds %struct.student, %struct.student* %34, i32 0, i32 6
  store %struct.student* null, %struct.student** %35, align 8
  br label %40

36:                                               ; preds = %15
  %37 = load %struct.student*, %struct.student** @head, align 8
  %38 = load %struct.student*, %struct.student** @p1, align 8
  %39 = getelementptr inbounds %struct.student, %struct.student* %38, i32 0, i32 6
  store %struct.student* %37, %struct.student** %39, align 8
  br label %40

40:                                               ; preds = %36, %33
  %41 = load %struct.student*, %struct.student** @p1, align 8
  store %struct.student* %41, %struct.student** @head, align 8
  %42 = call noalias i8* @malloc(i64 100) #3
  %43 = bitcast i8* %42 to %struct.student*
  store %struct.student* %43, %struct.student** @p1, align 8
  %44 = load %struct.student*, %struct.student** @p1, align 8
  %45 = getelementptr inbounds %struct.student, %struct.student* %44, i32 0, i32 0
  %46 = getelementptr inbounds [20 x i8], [20 x i8]* %45, i64 0, i64 0
  %47 = call i32 (i8*, ...) @__isoc99_scanf(i8* getelementptr inbounds ([3 x i8], [3 x i8]* @.str, i64 0, i64 0), i8* %46)
  br label %8

48:                                               ; preds = %8
  %49 = load %struct.student*, %struct.student** @head, align 8
  store %struct.student* %49, %struct.student** @p1, align 8
  br label %50

50:                                               ; preds = %74, %48
  %51 = load %struct.student*, %struct.student** @p1, align 8
  %52 = getelementptr inbounds %struct.student, %struct.student* %51, i32 0, i32 0
  %53 = getelementptr inbounds [20 x i8], [20 x i8]* %52, i64 0, i64 0
  %54 = load %struct.student*, %struct.student** @p1, align 8
  %55 = getelementptr inbounds %struct.student, %struct.student* %54, i32 0, i32 1
  %56 = getelementptr inbounds [20 x i8], [20 x i8]* %55, i64 0, i64 0
  %57 = load %struct.student*, %struct.student** @p1, align 8
  %58 = getelementptr inbounds %struct.student, %struct.student* %57, i32 0, i32 2
  %59 = load i8, i8* %58, align 8
  %60 = sext i8 %59 to i32
  %61 = load %struct.student*, %struct.student** @p1, align 8
  %62 = getelementptr inbounds %struct.student, %struct.student* %61, i32 0, i32 3
  %63 = load i32, i32* %62, align 4
  %64 = load %struct.student*, %struct.student** @p1, align 8
  %65 = getelementptr inbounds %struct.student, %struct.student* %64, i32 0, i32 4
  %66 = load double, double* %65, align 8
  %67 = load %struct.student*, %struct.student** @p1, align 8
  %68 = getelementptr inbounds %struct.student, %struct.student* %67, i32 0, i32 5
  %69 = getelementptr inbounds [100 x i8], [100 x i8]* %68, i64 0, i64 0
  %70 = call i32 (i8*, ...) @printf(i8* getelementptr inbounds ([19 x i8], [19 x i8]* @.str.2, i64 0, i64 0), i8* %53, i8* %56, i32 %60, i32 %63, double %66, i8* %69)
  %71 = load %struct.student*, %struct.student** @p1, align 8
  %72 = getelementptr inbounds %struct.student, %struct.student* %71, i32 0, i32 6
  %73 = load %struct.student*, %struct.student** %72, align 8
  store %struct.student* %73, %struct.student** @p1, align 8
  br label %74

74:                                               ; preds = %50
  %75 = load %struct.student*, %struct.student** @p1, align 8
  %76 = icmp ne %struct.student* %75, null
  br i1 %76, label %50, label %77

77:                                               ; preds = %74
  ret void
}

; Function Attrs: nounwind
declare dso_local noalias i8* @malloc(i64) #1

declare dso_local i32 @__isoc99_scanf(i8*, ...) #2

declare dso_local i32 @printf(i8*, ...) #2


!llvm.module.flags = !{!0}
!llvm.ident = !{!1}

!0 = !{i32 1, !"wchar_size", i32 4}
!1 = !{!"clang version 10.0.0-4ubuntu1 "}
